target datalayout = "e-m:e-p270:32:32-p271:32:32-p272:64:64-i64:64-i128:128-f80:128-n8:16:32:64-S128"
target triple = "x86_64-pc-linux-gnu"

%struct.AVAudioFifo = type { ptr, i32, i32, i32, i32, i32, i32 }

; Function Attrs: nounwind uwtable
define i32 @av_audio_fifo_drain(ptr noundef %0, i32 noundef %1) #0 {
  %3 = alloca i32, align 4
  %4 = alloca ptr, align 8
  %5 = alloca i32, align 4
  %6 = alloca i32, align 4
  %7 = alloca i32, align 4
  %8 = alloca i32, align 4
  store ptr %0, ptr %4, align 8, !tbaa !4
  store i32 %1, ptr %5, align 4, !tbaa !14
  call void @llvm.lifetime.start.p0(i64 4, ptr %6) #3
  call void @llvm.lifetime.start.p0(i64 4, ptr %7) #3
  %9 = load i32, ptr %5, align 4, !tbaa !14
  %10 = icmp slt i32 %9, 0
  br i1 %10, label %11, label %12

11:                                               ; preds = %2
  store i32 -22, ptr %3, align 4
  store i32 1, ptr %8, align 4
  br label %60

12:                                               ; preds = %2
  %13 = load i32, ptr %5, align 4, !tbaa !14
  %14 = load ptr, ptr %4, align 8, !tbaa !4
  %15 = getelementptr inbounds nuw %struct.AVAudioFifo, ptr %14, i32 0, i32 2
  %16 = load i32, ptr %15, align 4, !tbaa !31
  %17 = icmp sgt i32 %13, %16
  br i1 %17, label %18, label %22

18:                                               ; preds = %12
  %19 = load ptr, ptr %4, align 8, !tbaa !4
  %20 = getelementptr inbounds nuw %struct.AVAudioFifo, ptr %19, i32 0, i32 2
  %21 = load i32, ptr %20, align 4, !tbaa !31
  br label %24

22:                                               ; preds = %12
  %23 = load i32, ptr %5, align 4, !tbaa !14
  br label %24

24:                                               ; preds = %22, %18
  %25 = phi i32 [ %21, %18 ], [ %23, %22 ]
  store i32 %25, ptr %5, align 4, !tbaa !14
  %26 = load i32, ptr %5, align 4, !tbaa !14
  %27 = icmp ne i32 %26, 0
  br i1 %27, label %28, label %59

28:                                               ; preds = %24
  %29 = load i32, ptr %5, align 4, !tbaa !14
  %30 = load ptr, ptr %4, align 8, !tbaa !4
  %31 = getelementptr inbounds nuw %struct.AVAudioFifo, ptr %30, i32 0, i32 6
  %32 = load i32, ptr %31, align 4, !tbaa !20
  %33 = mul nsw i32 %29, %32
  store i32 %33, ptr %7, align 4, !tbaa !14
  store i32 0, ptr %6, align 4, !tbaa !14
  br label %34

34:                                               ; preds = %50, %28
  %35 = load i32, ptr %6, align 4, !tbaa !14
  %36 = load ptr, ptr %4, align 8, !tbaa !4
  %37 = getelementptr inbounds nuw %struct.AVAudioFifo, ptr %36, i32 0, i32 1
  %38 = load i32, ptr %37, align 8, !tbaa !15
  %39 = icmp slt i32 %35, %38
  br i1 %39, label %40, label %53

40:                                               ; preds = %34
  %41 = load ptr, ptr %4, align 8, !tbaa !4
  %42 = getelementptr inbounds nuw %struct.AVAudioFifo, ptr %41, i32 0, i32 0
  %43 = load ptr, ptr %42, align 8, !tbaa !9
  %44 = load i32, ptr %6, align 4, !tbaa !14
  %45 = sext i32 %44 to i64
  %46 = getelementptr inbounds ptr, ptr %43, i64 %45
  %47 = load ptr, ptr %46, align 8, !tbaa !21
  %48 = load i32, ptr %7, align 4, !tbaa !14
  %49 = sext i32 %48 to i64
  call void @av_fifo_drain2(ptr noundef %47, i64 noundef %49)
  br label %50

50:                                               ; preds = %40
  %51 = load i32, ptr %6, align 4, !tbaa !14
  %52 = add nsw i32 %51, 1
  store i32 %52, ptr %6, align 4, !tbaa !14
  br label %34, !llvm.loop !34

53:                                               ; preds = %34
  %54 = load i32, ptr %5, align 4, !tbaa !14
  %55 = load ptr, ptr %4, align 8, !tbaa !4
  %56 = getelementptr inbounds nuw %struct.AVAudioFifo, ptr %55, i32 0, i32 2
  %57 = load i32, ptr %56, align 4, !tbaa !31
  %58 = sub nsw i32 %57, %54
  store i32 %58, ptr %56, align 4, !tbaa !31
  br label %59

59:                                               ; preds = %53, %24
  store i32 0, ptr %3, align 4
  store i32 1, ptr %8, align 4
  br label %60

60:                                               ; preds = %59, %11
  call void @llvm.lifetime.end.p0(i64 4, ptr %7) #3
  call void @llvm.lifetime.end.p0(i64 4, ptr %6) #3
  %61 = load i32, ptr %3, align 4
  ret i32 %61
}