; Function Attrs: nounwind uwtable
define range(i32 -22, 1) i32 @av_audio_fifo_drain(ptr noundef captures(none) %0, i32 noundef %1) local_unnamed_addr #0 {
  %3 = icmp slt i32 %1, 0
  br i1 %3, label %24, label %4

4:                                                ; preds = %2
  %5 = getelementptr inbounds nuw i8, ptr %0, i64 12
  %6 = load i32, ptr %5, align 4, !tbaa !24
  %. = tail call i32 @llvm.smin.i32(i32 %1, i32 %6)
  %.not = icmp eq i32 %., 0
  br i1 %.not, label %24, label %7

7:                                                ; preds = %4
  %8 = getelementptr inbounds nuw i8, ptr %0, i64 8
  %9 = load i32, ptr %8, align 8, !tbaa !12
  %10 = icmp sgt i32 %9, 0
  br i1 %10, label %.lr.ph, label %._crit_edge

.lr.ph:                                           ; preds = %7
  %11 = getelementptr inbounds nuw i8, ptr %0, i64 28
  %12 = load i32, ptr %11, align 4, !tbaa !18
  %13 = mul nsw i32 %12, %.
  %14 = sext i32 %13 to i64
  br label %15

15:                                               ; preds = %.lr.ph, %15
  %indvars.iv = phi i64 [ 0, %.lr.ph ], [ %indvars.iv.next, %15 ]
  %16 = load ptr, ptr %0, align 8, !tbaa !4
  %17 = getelementptr inbounds nuw ptr, ptr %16, i64 %indvars.iv
  %18 = load ptr, ptr %17, align 8, !tbaa !20
  tail call void @av_fifo_drain2(ptr noundef %18, i64 noundef %14) #5
  %indvars.iv.next = add nuw nsw i64 %indvars.iv, 1
  %19 = load i32, ptr %8, align 8, !tbaa !12
  %20 = sext i32 %19 to i64
  %21 = icmp slt i64 %indvars.iv.next, %20
  br i1 %21, label %15, label %._crit_edge.loopexit, !llvm.loop !29

._crit_edge.loopexit:                             ; preds = %15
  %.pre = load i32, ptr %5, align 4, !tbaa !24
  br label %._crit_edge

._crit_edge:                                      ; preds = %._crit_edge.loopexit, %7
  %22 = phi i32 [ %.pre, %._crit_edge.loopexit ], [ %6, %7 ]
  %23 = sub nsw i32 %22, %.
  store i32 %23, ptr %5, align 4, !tbaa !24
  br label %24

24:                                               ; preds = %4, %._crit_edge, %2
  %.0 = phi i32 [ -22, %2 ], [ 0, %._crit_edge ], [ 0, %4 ]
  ret i32 %.0
}